; ModuleID = 'source-C-CXX/52/802.c'
source_filename = "source-C-CXX/52/802.c"
target datalayout = "e-m:e-p270:32:32-p271:32:32-p272:64:64-i64:64-f80:128-n8:16:32:64-S128"
target triple = "x86_64-pc-linux-gnu"

@.str = private unnamed_addr constant [3 x i8] c"%d\00", align 1
@.str.1 = private unnamed_addr constant [4 x i8] c"%d,\00", align 1

; Function Attrs: nofree nounwind sspstrong uwtable
define dso_local i32 @main() local_unnamed_addr #0 {
  %1 = alloca i32, align 4
  %2 = alloca [300 x i32], align 16
  %3 = alloca [300 x i32], align 16
  %4 = bitcast i32* %1 to i8*
  call void @llvm.lifetime.start.p0i8(i64 4, i8* nonnull %4) #3
  %5 = bitcast [300 x i32]* %2 to i8*
  call void @llvm.lifetime.start.p0i8(i64 1200, i8* nonnull %5) #3
  %6 = bitcast [300 x i32]* %3 to i8*
  call void @llvm.lifetime.start.p0i8(i64 1200, i8* nonnull %6) #3
  %7 = call i32 (i8*, ...) @__isoc99_scanf(i8* getelementptr inbounds ([3 x i8], [3 x i8]* @.str, i64 0, i64 0), i32* nonnull %1)
  %8 = getelementptr inbounds [300 x i32], [300 x i32]* %3, i64 0, i64 0
  %9 = call i32 (i8*, ...) @__isoc99_scanf(i8* getelementptr inbounds ([3 x i8], [3 x i8]* @.str, i64 0, i64 0), i32* nonnull %8)
  %10 = load i32, i32* %8, align 16, !tbaa !5
  %11 = getelementptr inbounds [300 x i32], [300 x i32]* %2, i64 0, i64 0
  store i32 %10, i32* %11, align 16, !tbaa !5
  %12 = load i32, i32* %1, align 4, !tbaa !5
  %13 = icmp sgt i32 %12, 1
  br i1 %13, label %19, label %55

14:                                               ; preds = %42
  %15 = add i32 %43, -1
  %16 = icmp sgt i32 %43, 1
  br i1 %16, label %17, label %55

17:                                               ; preds = %14
  %18 = zext i32 %15 to i64
  br label %48

19:                                               ; preds = %0, %42
  %20 = phi i64 [ %44, %42 ], [ 1, %0 ]
  %21 = phi i32 [ %43, %42 ], [ 1, %0 ]
  %22 = getelementptr inbounds [300 x i32], [300 x i32]* %3, i64 0, i64 %20
  %23 = call i32 (i8*, ...) @__isoc99_scanf(i8* getelementptr inbounds ([3 x i8], [3 x i8]* @.str, i64 0, i64 0), i32* nonnull %22)
  %24 = add nsw i64 %20, -1
  %25 = load i32, i32* %22, align 4, !tbaa !5
  br label %26

26:                                               ; preds = %19, %38
  %27 = phi i64 [ 0, %19 ], [ %40, %38 ]
  %28 = phi i32 [ %21, %19 ], [ %39, %38 ]
  %29 = getelementptr inbounds [300 x i32], [300 x i32]* %2, i64 0, i64 %27
  %30 = load i32, i32* %29, align 4, !tbaa !5
  %31 = icmp eq i32 %25, %30
  br i1 %31, label %42, label %32

32:                                               ; preds = %26
  %33 = icmp eq i64 %27, %24
  br i1 %33, label %34, label %38

34:                                               ; preds = %32
  %35 = sext i32 %28 to i64
  %36 = getelementptr inbounds [300 x i32], [300 x i32]* %2, i64 0, i64 %35
  store i32 %25, i32* %36, align 4, !tbaa !5
  %37 = add nsw i32 %28, 1
  br label %38

38:                                               ; preds = %32, %34
  %39 = phi i32 [ %37, %34 ], [ %28, %32 ]
  %40 = add nuw nsw i64 %27, 1
  %41 = icmp eq i64 %40, %20
  br i1 %41, label %42, label %26, !llvm.loop !9

42:                                               ; preds = %38, %26
  %43 = phi i32 [ %39, %38 ], [ %28, %26 ]
  %44 = add nuw nsw i64 %20, 1
  %45 = load i32, i32* %1, align 4, !tbaa !5
  %46 = sext i32 %45 to i64
  %47 = icmp slt i64 %44, %46
  br i1 %47, label %19, label %14, !llvm.loop !11

48:                                               ; preds = %17, %48
  %49 = phi i64 [ 0, %17 ], [ %53, %48 ]
  %50 = getelementptr inbounds [300 x i32], [300 x i32]* %2, i64 0, i64 %49
  %51 = load i32, i32* %50, align 4, !tbaa !5
  %52 = call i32 (i8*, ...) @printf(i8* nonnull dereferenceable(1) getelementptr inbounds ([4 x i8], [4 x i8]* @.str.1, i64 0, i64 0), i32 %51)
  %53 = add nuw nsw i64 %49, 1
  %54 = icmp eq i64 %53, %18
  br i1 %54, label %55, label %48, !llvm.loop !12

55:                                               ; preds = %48, %0, %14
  %56 = phi i32 [ %15, %14 ], [ 0, %0 ], [ %15, %48 ]
  %57 = sext i32 %56 to i64
  %58 = getelementptr inbounds [300 x i32], [300 x i32]* %2, i64 0, i64 %57
  %59 = load i32, i32* %58, align 4, !tbaa !5
  %60 = call i32 (i8*, ...) @printf(i8* nonnull dereferenceable(1) getelementptr inbounds ([3 x i8], [3 x i8]* @.str, i64 0, i64 0), i32 %59)
  call void @llvm.lifetime.end.p0i8(i64 1200, i8* nonnull %6) #3
  call void @llvm.lifetime.end.p0i8(i64 1200, i8* nonnull %5) #3
  call void @llvm.lifetime.end.p0i8(i64 4, i8* nonnull %4) #3
  ret i32 0
}

; Function Attrs: argmemonly mustprogress nofree nosync nounwind willreturn
declare void @llvm.lifetime.start.p0i8(i64 immarg, i8* nocapture) #1

; Function Attrs: nofree nounwind
declare noundef i32 @__isoc99_scanf(i8* nocapture noundef readonly, ...) local_unnamed_addr #2

; Function Attrs: nofree nounwind
declare noundef i32 @printf(i8* nocapture noundef readonly, ...) local_unnamed_addr #2

; Function Attrs: argmemonly mustprogress nofree nosync nounwind willreturn
declare void @llvm.lifetime.end.p0i8(i64 immarg, i8* nocapture) #1


!llvm.module.flags = !{!0, !1, !2, !3}
!llvm.ident = !{!4}

!0 = !{i32 1, !"wchar_size", i32 4}
!1 = !{i32 7, !"PIC Level", i32 2}
!2 = !{i32 7, !"PIE Level", i32 2}
!3 = !{i32 7, !"uwtable", i32 1}
!4 = !{!"clang version 13.0.0"}
!5 = !{!6, !6, i64 0}
!6 = !{!"int", !7, i64 0}
!7 = !{!"omnipotent char", !8, i64 0}
!8 = !{!"Simple C/C++ TBAA"}
!9 = distinct !{!9, !10}
!10 = !{!"llvm.loop.mustprogress"}
!11 = distinct !{!11, !10}
!12 = distinct !{!12, !10}
